target datalayout = "e-m:e-p270:32:32-p271:32:32-p272:64:64-i64:64-i128:128-f80:128-n8:16:32:64-S128"
target triple = "x86_64-pc-linux-gnu"

%struct.strbuf = type { i64, i64, ptr }
%struct.walker_data = type { ptr, i32, ptr }
%struct.walker = type { ptr, ptr, ptr, ptr, ptr, i32, i32, i32, i32 }
%struct.active_request_slot = type { ptr, i32, i32, i64, ptr, ptr, ptr, ptr, ptr }
%struct.alternates_request = type { ptr, ptr, ptr, ptr, ptr, i32 }

@stderr = external global ptr, align 8
@__const.fetch_alternates.buffer = private unnamed_addr constant %struct.strbuf { i64 0, i64 0, ptr @strbuf_slopbuf }, align 8
@__const.fetch_alternates.url = private unnamed_addr constant %struct.strbuf { i64 0, i64 0, ptr @strbuf_slopbuf }, align 8
@.str.13 = private unnamed_addr constant [32 x i8] c"Getting alternates list for %s\0A\00", align 1
@.str.14 = private unnamed_addr constant [32 x i8] c"%s/objects/info/http-alternates\00", align 1

; Function Attrs: nounwind uwtable
define internal void @fetch_alternates(ptr noundef %0, ptr noundef %1) #0 {
  %3 = alloca ptr, align 8
  %4 = alloca ptr, align 8
  %5 = alloca %struct.strbuf, align 8
  %6 = alloca %struct.strbuf, align 8
  %7 = alloca ptr, align 8
  %8 = alloca %struct.alternates_request, align 8
  %9 = alloca ptr, align 8
  %10 = alloca i32, align 4
  store ptr %0, ptr %3, align 8, !tbaa !11
  store ptr %1, ptr %4, align 8, !tbaa !4
  call void @llvm.lifetime.start.p0(i64 24, ptr %5) #8
  call void @llvm.memcpy.p0.p0.i64(ptr align 8 %5, ptr align 8 @__const.fetch_alternates.buffer, i64 24, i1 false)
  call void @llvm.lifetime.start.p0(i64 24, ptr %6) #8
  call void @llvm.memcpy.p0.p0.i64(ptr align 8 %6, ptr align 8 @__const.fetch_alternates.url, i64 24, i1 false)
  call void @llvm.lifetime.start.p0(i64 8, ptr %7) #8
  call void @llvm.lifetime.start.p0(i64 48, ptr %8) #8
  call void @llvm.lifetime.start.p0(i64 8, ptr %9) #8
  %11 = load ptr, ptr %3, align 8, !tbaa !11
  %12 = getelementptr inbounds nuw %struct.walker, ptr %11, i32 0, i32 0
  %13 = load ptr, ptr %12, align 8, !tbaa !33
  store ptr %13, ptr %9, align 8, !tbaa !9
  br label %14

14:                                               ; preds = %19, %2
  %15 = load ptr, ptr %9, align 8, !tbaa !9
  %16 = getelementptr inbounds nuw %struct.walker_data, ptr %15, i32 0, i32 1
  %17 = load i32, ptr %16, align 8, !tbaa !26
  %18 = icmp eq i32 %17, 0
  br i1 %18, label %19, label %20

19:                                               ; preds = %14
  call void @step_active_slots()
  br label %14, !llvm.loop !96

20:                                               ; preds = %14
  %21 = load ptr, ptr %9, align 8, !tbaa !9
  %22 = getelementptr inbounds nuw %struct.walker_data, ptr %21, i32 0, i32 1
  %23 = load i32, ptr %22, align 8, !tbaa !26
  %24 = icmp eq i32 %23, 1
  br i1 %24, label %25, label %26

25:                                               ; preds = %20
  store i32 1, ptr %10, align 4
  br label %76

26:                                               ; preds = %20
  %27 = load ptr, ptr %9, align 8, !tbaa !9
  %28 = getelementptr inbounds nuw %struct.walker_data, ptr %27, i32 0, i32 1
  store i32 0, ptr %28, align 8, !tbaa !26
  %29 = load ptr, ptr %3, align 8, !tbaa !11
  %30 = getelementptr inbounds nuw %struct.walker, ptr %29, i32 0, i32 5
  %31 = load i32, ptr %30, align 8, !tbaa !51
  %32 = icmp ne i32 %31, 0
  br i1 %32, label %33, label %37

33:                                               ; preds = %26
  %34 = load ptr, ptr @stderr, align 8, !tbaa !82
  %35 = load ptr, ptr %4, align 8, !tbaa !4
  %36 = call i32 (ptr, ptr, ...) @fprintf(ptr noundef %34, ptr noundef @.str.13, ptr noundef %35) #8
  br label %37

37:                                               ; preds = %33, %26
  %38 = load ptr, ptr %4, align 8, !tbaa !4
  call void (ptr, ptr, ...) @strbuf_addf(ptr noundef %6, ptr noundef @.str.14, ptr noundef %38)
  %39 = call ptr @get_active_slot()
  store ptr %39, ptr %7, align 8, !tbaa !97
  %40 = load ptr, ptr %7, align 8, !tbaa !97
  %41 = getelementptr inbounds nuw %struct.active_request_slot, ptr %40, i32 0, i32 7
  store ptr @process_alternates_response, ptr %41, align 8, !tbaa !98
  %42 = load ptr, ptr %3, align 8, !tbaa !11
  %43 = getelementptr inbounds nuw %struct.alternates_request, ptr %8, i32 0, i32 0
  store ptr %42, ptr %43, align 8, !tbaa !99
  %44 = load ptr, ptr %7, align 8, !tbaa !97
  %45 = getelementptr inbounds nuw %struct.active_request_slot, ptr %44, i32 0, i32 6
  store ptr %8, ptr %45, align 8, !tbaa !102
  %46 = load ptr, ptr %7, align 8, !tbaa !97
  %47 = getelementptr inbounds nuw %struct.active_request_slot, ptr %46, i32 0, i32 0
  %48 = load ptr, ptr %47, align 8, !tbaa !103
  %49 = call i32 (ptr, i32, ...) @curl_easy_setopt(ptr noundef %48, i32 noundef 10001, ptr noundef %5)
  %50 = load ptr, ptr %7, align 8, !tbaa !97
  %51 = getelementptr inbounds nuw %struct.active_request_slot, ptr %50, i32 0, i32 0
  %52 = load ptr, ptr %51, align 8, !tbaa !103
  %53 = call i32 (ptr, i32, ...) @curl_easy_setopt(ptr noundef %52, i32 noundef 20011, ptr noundef @fwrite_buffer)
  %54 = load ptr, ptr %7, align 8, !tbaa !97
  %55 = getelementptr inbounds nuw %struct.active_request_slot, ptr %54, i32 0, i32 0
  %56 = load ptr, ptr %55, align 8, !tbaa !103
  %57 = getelementptr inbounds nuw %struct.strbuf, ptr %6, i32 0, i32 2
  %58 = load ptr, ptr %57, align 8, !tbaa !81
  %59 = call i32 (ptr, i32, ...) @curl_easy_setopt(ptr noundef %56, i32 noundef 10002, ptr noundef %58)
  %60 = load ptr, ptr %4, align 8, !tbaa !4
  %61 = getelementptr inbounds nuw %struct.alternates_request, ptr %8, i32 0, i32 1
  store ptr %60, ptr %61, align 8, !tbaa !104
  %62 = getelementptr inbounds nuw %struct.alternates_request, ptr %8, i32 0, i32 2
  store ptr %6, ptr %62, align 8, !tbaa !105
  %63 = getelementptr inbounds nuw %struct.alternates_request, ptr %8, i32 0, i32 3
  store ptr %5, ptr %63, align 8, !tbaa !106
  %64 = getelementptr inbounds nuw %struct.alternates_request, ptr %8, i32 0, i32 5
  store i32 1, ptr %64, align 8, !tbaa !107
  %65 = load ptr, ptr %7, align 8, !tbaa !97
  %66 = getelementptr inbounds nuw %struct.alternates_request, ptr %8, i32 0, i32 4
  store ptr %65, ptr %66, align 8, !tbaa !108
  %67 = load ptr, ptr %7, align 8, !tbaa !97
  %68 = call i32 @start_active_slot(ptr noundef %67)
  %69 = icmp ne i32 %68, 0
  br i1 %69, label %70, label %72

70:                                               ; preds = %37
  %71 = load ptr, ptr %7, align 8, !tbaa !97
  call void @run_active_slot(ptr noundef %71)
  br label %75

72:                                               ; preds = %37
  %73 = load ptr, ptr %9, align 8, !tbaa !9
  %74 = getelementptr inbounds nuw %struct.walker_data, ptr %73, i32 0, i32 1
  store i32 -1, ptr %74, align 8, !tbaa !26
  br label %75

75:                                               ; preds = %72, %70
  call void @strbuf_release(ptr noundef %5)
  call void @strbuf_release(ptr noundef %6)
  store i32 0, ptr %10, align 4
  br label %76

76:                                               ; preds = %75, %25
  call void @llvm.lifetime.end.p0(i64 8, ptr %9) #8
  call void @llvm.lifetime.end.p0(i64 48, ptr %8) #8
  call void @llvm.lifetime.end.p0(i64 8, ptr %7) #8
  call void @llvm.lifetime.end.p0(i64 24, ptr %6) #8
  call void @llvm.lifetime.end.p0(i64 24, ptr %5) #8
  %77 = load i32, ptr %10, align 4
  switch i32 %77, label %79 [
    i32 0, label %78
    i32 1, label %78
  ]

78:                                               ; preds = %76, %76
  ret void

79:                                               ; preds = %76
  unreachable
}