; Function Attrs: nounwind uwtable
define internal fastcc void @fetch_alternates(ptr noundef %0, ptr noundef %1) unnamed_addr #0 {
  %3 = alloca %struct.strbuf, align 8
  %4 = alloca %struct.strbuf, align 8
  %5 = alloca %struct.alternates_request, align 8
  call void @llvm.lifetime.start.p0(i64 24, ptr nonnull %3) #11
  call void @llvm.memcpy.p0.p0.i64(ptr noundef nonnull align 8 dereferenceable(24) %3, ptr noundef nonnull align 8 dereferenceable(24) @__const.process_alternates_response.target, i64 24, i1 false)
  call void @llvm.lifetime.start.p0(i64 24, ptr nonnull %4) #11
  call void @llvm.memcpy.p0.p0.i64(ptr noundef nonnull align 8 dereferenceable(24) %4, ptr noundef nonnull align 8 dereferenceable(24) @__const.process_alternates_response.target, i64 24, i1 false)
  call void @llvm.lifetime.start.p0(i64 48, ptr nonnull %5) #11
  %6 = load ptr, ptr %0, align 8, !tbaa !26
  %7 = getelementptr inbounds nuw i8, ptr %6, i64 8
  br label %8

8:                                                ; preds = %10, %2
  %9 = load i32, ptr %7, align 8, !tbaa !19
  switch i32 %9, label %11 [
    i32 0, label %10
    i32 1, label %.loopexit
  ]

10:                                               ; preds = %8
  tail call void @step_active_slots() #11
  br label %8, !llvm.loop !85

11:                                               ; preds = %8
  store i32 0, ptr %7, align 8, !tbaa !19
  %12 = getelementptr inbounds nuw i8, ptr %0, i64 40
  %13 = load i32, ptr %12, align 8, !tbaa !58
  %.not = icmp eq i32 %13, 0
  br i1 %.not, label %17, label %14

14:                                               ; preds = %11
  %15 = load ptr, ptr @stderr, align 8, !tbaa !59
  %16 = tail call i32 (ptr, ptr, ...) @fprintf(ptr noundef %15, ptr noundef nonnull @.str.13, ptr noundef %1) #13
  br label %17

17:                                               ; preds = %14, %11
  call void (ptr, ptr, ...) @strbuf_addf(ptr noundef nonnull %4, ptr noundef nonnull @.str.14, ptr noundef %1) #11
  %18 = call ptr @get_active_slot() #11
  %19 = getelementptr inbounds nuw i8, ptr %18, i64 48
  store ptr @process_alternates_response, ptr %19, align 8, !tbaa !82
  store ptr %0, ptr %5, align 8, !tbaa !86
  %20 = getelementptr inbounds nuw i8, ptr %18, i64 40
  store ptr %5, ptr %20, align 8, !tbaa !83
  %21 = load ptr, ptr %18, align 8, !tbaa !89
  %22 = call i32 (ptr, i32, ...) @curl_easy_setopt(ptr noundef %21, i32 noundef 10001, ptr noundef nonnull %3) #11
  %23 = load ptr, ptr %18, align 8, !tbaa !89
  %24 = call i32 (ptr, i32, ...) @curl_easy_setopt(ptr noundef %23, i32 noundef 20011, ptr noundef nonnull @fwrite_buffer) #11
  %25 = load ptr, ptr %18, align 8, !tbaa !89
  %26 = getelementptr inbounds nuw i8, ptr %4, i64 16
  %27 = load ptr, ptr %26, align 8, !tbaa !57
  %28 = call i32 (ptr, i32, ...) @curl_easy_setopt(ptr noundef %25, i32 noundef 10002, ptr noundef %27) #11
  %29 = getelementptr inbounds nuw i8, ptr %5, i64 8
  store ptr %1, ptr %29, align 8, !tbaa !90
  %30 = getelementptr inbounds nuw i8, ptr %5, i64 16
  store ptr %4, ptr %30, align 8, !tbaa !91
  %31 = getelementptr inbounds nuw i8, ptr %5, i64 24
  store ptr %3, ptr %31, align 8, !tbaa !92
  %32 = getelementptr inbounds nuw i8, ptr %5, i64 40
  store i32 1, ptr %32, align 8, !tbaa !93
  %33 = getelementptr inbounds nuw i8, ptr %5, i64 32
  store ptr %18, ptr %33, align 8, !tbaa !94
  %34 = call i32 @start_active_slot(ptr noundef nonnull %18) #11
  %.not18 = icmp eq i32 %34, 0
  br i1 %.not18, label %36, label %35

35:                                               ; preds = %17
  call void @run_active_slot(ptr noundef nonnull %18) #11
  br label %37

36:                                               ; preds = %17
  store i32 -1, ptr %7, align 8, !tbaa !19
  br label %37

37:                                               ; preds = %36, %35
  call void @strbuf_release(ptr noundef nonnull %3) #11
  call void @strbuf_release(ptr noundef nonnull %4) #11
  br label %.loopexit

.loopexit:                                        ; preds = %8, %37
  call void @llvm.lifetime.end.p0(i64 48, ptr nonnull %5) #11
  call void @llvm.lifetime.end.p0(i64 24, ptr nonnull %4) #11
  call void @llvm.lifetime.end.p0(i64 24, ptr nonnull %3) #11
  ret void
}